target datalayout = "e-m:e-p270:32:32-p271:32:32-p272:64:64-i64:64-i128:128-f80:128-n8:16:32:64-S128"
target triple = "x86_64-pc-linux-gnu"

%"class.google::protobuf::internal::LogMessage" = type { i32, ptr, i32, %"class.std::__cxx11::basic_string" }
%"class.std::__cxx11::basic_string" = type { %"struct.std::__cxx11::basic_string<char>::_Alloc_hider", i64, %union.anon }
%"struct.std::__cxx11::basic_string<char>::_Alloc_hider" = type { ptr }
%union.anon = type { i64, [8 x i8] }
%"class.google::protobuf::internal::LogFinisher" = type { i8 }
%"class.google::protobuf::internal::SerialArena::Block" = type { i64, i64, i64 }
%"struct.std::pair" = type { ptr, i64 }
%"class.std::tuple" = type { %"struct.std::_Tuple_impl" }
%"struct.std::_Tuple_impl" = type { %"struct.std::_Tuple_impl.3", %"struct.std::_Head_base.4" }
%"struct.std::_Tuple_impl.3" = type { %"struct.std::_Head_base" }
%"struct.std::_Head_base" = type { ptr }
%"struct.std::_Head_base.4" = type { ptr }

@.str.5 = private unnamed_addr constant [62 x i8] c"src/../third_party/protobuf-lite/google/protobuf/arena_impl.h\00", align 1
@.str.6 = private unnamed_addr constant [64 x i8] c"CHECK failed: (reinterpret_cast<uintptr_t>(next) & 3) == (0u): \00", align 1

; Function Attrs: mustprogress nounwind uwtable
define linkonce_odr void @_ZNSt10_Head_baseILm1ERmLb0EEC2ES0_(ptr noundef nonnull align 8 dereferenceable(8) %0, ptr noundef nonnull align 8 dereferenceable(8) %1) unnamed_addr #5 comdat align 2 {
  %3 = alloca ptr, align 8
  %4 = alloca ptr, align 8
  store ptr %0, ptr %3, align 8, !tbaa !131
  store ptr %1, ptr %4, align 8, !tbaa !49
  %5 = load ptr, ptr %3, align 8
  %6 = getelementptr inbounds nuw %"struct.std::_Head_base", ptr %5, i32 0, i32 0
  %7 = load ptr, ptr %4, align 8, !tbaa !49
  store ptr %7, ptr %6, align 8, !tbaa !49
  ret void
}

; Function Attrs: mustprogress nounwind uwtable
define linkonce_odr void @_ZNSt10_Head_baseILm0ERPvLb0EEC2ES1_(ptr noundef nonnull align 8 dereferenceable(8) %0, ptr noundef nonnull align 8 dereferenceable(8) %1) unnamed_addr #5 comdat align 2 {
  %3 = alloca ptr, align 8
  %4 = alloca ptr, align 8
  store ptr %0, ptr %3, align 8, !tbaa !129
  store ptr %1, ptr %4, align 8, !tbaa !99
  %5 = load ptr, ptr %3, align 8
  %6 = getelementptr inbounds nuw %"struct.std::_Head_base.4", ptr %5, i32 0, i32 0
  %7 = load ptr, ptr %4, align 8, !tbaa !99
  store ptr %7, ptr %6, align 8, !tbaa !99
  ret void
}

; Function Attrs: mustprogress uwtable
define linkonce_odr void @_ZNSt11_Tuple_implILm1EJRmEEC2ES0_(ptr noundef nonnull align 8 dereferenceable(8) %0, ptr noundef nonnull align 8 dereferenceable(8) %1) unnamed_addr #7 comdat align 2 {
  %3 = alloca ptr, align 8
  %4 = alloca ptr, align 8
  store ptr %0, ptr %3, align 8, !tbaa !127
  store ptr %1, ptr %4, align 8, !tbaa !49
  %5 = load ptr, ptr %3, align 8
  %6 = load ptr, ptr %4, align 8, !tbaa !49
  call void @_ZNSt10_Head_baseILm1ERmLb0EEC2ES0_(ptr noundef nonnull align 8 dereferenceable(8) %5, ptr noundef nonnull align 8 dereferenceable(8) %6)
  ret void
}

; Function Attrs: mustprogress nounwind uwtable
define linkonce_odr noundef nonnull align 8 dereferenceable(8) ptr @_ZNSt10_Head_baseILm1ERmLb0EE7_M_headERS1_(ptr noundef nonnull align 8 dereferenceable(8) %0) #5 comdat align 2 {
  %2 = alloca ptr, align 8
  store ptr %0, ptr %2, align 8, !tbaa !131
  %3 = load ptr, ptr %2, align 8, !tbaa !131
  %4 = getelementptr inbounds nuw %"struct.std::_Head_base", ptr %3, i32 0, i32 0
  %5 = load ptr, ptr %4, align 8, !tbaa !142
  ret ptr %5
}

; Function Attrs: mustprogress nounwind uwtable
define linkonce_odr noundef nonnull align 8 dereferenceable(8) ptr @_ZNSt10_Head_baseILm0ERPvLb0EE7_M_headERS2_(ptr noundef nonnull align 8 dereferenceable(8) %0) #5 comdat align 2 {
  %2 = alloca ptr, align 8
  store ptr %0, ptr %2, align 8, !tbaa !129
  %3 = load ptr, ptr %2, align 8, !tbaa !129
  %4 = getelementptr inbounds nuw %"struct.std::_Head_base.4", ptr %3, i32 0, i32 0
  %5 = load ptr, ptr %4, align 8, !tbaa !140
  ret ptr %5
}

; Function Attrs: noinline noreturn nounwind uwtable
define linkonce_odr hidden void @__clang_call_terminate(ptr noundef %0) #12 comdat {
  %2 = call ptr @__cxa_begin_catch(ptr %0) #3
  call void @_ZSt9terminatev() #18
  unreachable
}

; Function Attrs: mustprogress uwtable
define linkonce_odr void @_ZNSt11_Tuple_implILm0EJRPvRmEEC2ES1_S2_(ptr noundef nonnull align 8 dereferenceable(16) %0, ptr noundef nonnull align 8 dereferenceable(8) %1, ptr noundef nonnull align 8 dereferenceable(8) %2) unnamed_addr #7 comdat align 2 {
  %4 = alloca ptr, align 8
  %5 = alloca ptr, align 8
  %6 = alloca ptr, align 8
  store ptr %0, ptr %4, align 8, !tbaa !125
  store ptr %1, ptr %5, align 8, !tbaa !99
  store ptr %2, ptr %6, align 8, !tbaa !49
  %7 = load ptr, ptr %4, align 8
  %8 = load ptr, ptr %6, align 8, !tbaa !49
  call void @_ZNSt11_Tuple_implILm1EJRmEEC2ES0_(ptr noundef nonnull align 8 dereferenceable(8) %7, ptr noundef nonnull align 8 dereferenceable(8) %8)
  %9 = getelementptr inbounds i8, ptr %7, i64 8
  %10 = load ptr, ptr %5, align 8, !tbaa !99
  call void @_ZNSt10_Head_baseILm0ERPvLb0EEC2ES1_(ptr noundef nonnull align 8 dereferenceable(8) %9, ptr noundef nonnull align 8 dereferenceable(8) %10)
  ret void
}

; Function Attrs: mustprogress nounwind uwtable
define linkonce_odr noundef nonnull align 8 dereferenceable(8) ptr @_ZNSt11_Tuple_implILm1EJRmEE7_M_headERS1_(ptr noundef nonnull align 8 dereferenceable(8) %0) #5 comdat align 2 {
  %2 = alloca ptr, align 8
  store ptr %0, ptr %2, align 8, !tbaa !127
  %3 = load ptr, ptr %2, align 8, !tbaa !127
  %4 = call noundef nonnull align 8 dereferenceable(8) ptr @_ZNSt10_Head_baseILm1ERmLb0EE7_M_headERS1_(ptr noundef nonnull align 8 dereferenceable(8) %3) #3
  ret ptr %4
}

; Function Attrs: mustprogress nounwind uwtable
define linkonce_odr noundef nonnull align 8 dereferenceable(8) ptr @_ZNSt11_Tuple_implILm0EJRPvRmEE7_M_tailERS3_(ptr noundef nonnull align 8 dereferenceable(16) %0) #5 comdat align 2 {
  %2 = alloca ptr, align 8
  store ptr %0, ptr %2, align 8, !tbaa !125
  %3 = load ptr, ptr %2, align 8, !tbaa !125
  ret ptr %3
}

; Function Attrs: mustprogress nounwind uwtable
define linkonce_odr noundef nonnull align 8 dereferenceable(8) ptr @_ZNSt11_Tuple_implILm0EJRPvRmEE7_M_headERS3_(ptr noundef nonnull align 8 dereferenceable(16) %0) #5 comdat align 2 {
  %2 = alloca ptr, align 8
  store ptr %0, ptr %2, align 8, !tbaa !125
  %3 = load ptr, ptr %2, align 8, !tbaa !125
  %4 = getelementptr inbounds i8, ptr %3, i64 8
  %5 = call noundef nonnull align 8 dereferenceable(8) ptr @_ZNSt10_Head_baseILm0ERPvLb0EE7_M_headERS2_(ptr noundef nonnull align 8 dereferenceable(8) %4) #3
  ret ptr %5
}

; Function Attrs: mustprogress nounwind uwtable
define linkonce_odr void @_ZNSt5tupleIJRPvRmEEC2ILb1ETnNSt9enable_ifIXclsr4_TCCIXT_EEE29__is_implicitly_constructibleIS1_S2_EEEbE4typeELb1EEES1_S2_(ptr noundef nonnull align 8 dereferenceable(16) %0, ptr noundef nonnull align 8 dereferenceable(8) %1, ptr noundef nonnull align 8 dereferenceable(8) %2) unnamed_addr #5 comdat align 2 personality ptr @__gxx_personality_v0 {
  %4 = alloca ptr, align 8
  %5 = alloca ptr, align 8
  %6 = alloca ptr, align 8
  store ptr %0, ptr %4, align 8, !tbaa !103
  store ptr %1, ptr %5, align 8, !tbaa !99
  store ptr %2, ptr %6, align 8, !tbaa !49
  %7 = load ptr, ptr %4, align 8
  %8 = load ptr, ptr %5, align 8, !tbaa !99
  %9 = load ptr, ptr %6, align 8, !tbaa !49
  invoke void @_ZNSt11_Tuple_implILm0EJRPvRmEEC2ES1_S2_(ptr noundef nonnull align 8 dereferenceable(16) %7, ptr noundef nonnull align 8 dereferenceable(8) %8, ptr noundef nonnull align 8 dereferenceable(8) %9)
          to label %10 unwind label %11

10:                                               ; preds = %3
  ret void

11:                                               ; preds = %3
  %12 = landingpad { ptr, i32 }
          catch ptr null
  %13 = extractvalue { ptr, i32 } %12, 0
  call void @__clang_call_terminate(ptr %13) #18
  unreachable
}

; Function Attrs: mustprogress uwtable
define linkonce_odr void @_ZN6google8protobuf8internal11SerialArena5BlockC2EmPS3_bb(ptr noundef nonnull align 8 dereferenceable(24) %0, i64 noundef %1, ptr noundef %2, i1 noundef zeroext %3, i1 noundef zeroext %4) unnamed_addr #7 comdat align 2 personality ptr @__gxx_personality_v0 {
  %6 = alloca ptr, align 8
  %7 = alloca i64, align 8
  %8 = alloca ptr, align 8
  %9 = alloca i8, align 1
  %10 = alloca i8, align 1
  %11 = alloca %"class.google::protobuf::internal::LogMessage", align 8
  %12 = alloca i1, align 1
  %13 = alloca i1, align 1
  %14 = alloca ptr, align 8
  %15 = alloca i32, align 4
  %16 = alloca %"class.google::protobuf::internal::LogFinisher", align 1
  store ptr %0, ptr %6, align 8, !tbaa !38
  store i64 %1, ptr %7, align 8, !tbaa !7
  store ptr %2, ptr %8, align 8, !tbaa !38
  %17 = zext i1 %3 to i8
  store i8 %17, ptr %9, align 1, !tbaa !23
  %18 = zext i1 %4 to i8
  store i8 %18, ptr %10, align 1, !tbaa !23
  %19 = load ptr, ptr %6, align 8
  %20 = getelementptr inbounds nuw %"class.google::protobuf::internal::SerialArena::Block", ptr %19, i32 0, i32 0
  %21 = load ptr, ptr %8, align 8, !tbaa !38
  %22 = ptrtoint ptr %21 to i64
  %23 = load i8, ptr %9, align 1, !tbaa !23, !range !36, !noundef !37
  %24 = trunc i8 %23 to i1
  %25 = select i1 %24, i32 1, i32 0
  %26 = sext i32 %25 to i64
  %27 = or i64 %22, %26
  %28 = load i8, ptr %10, align 1, !tbaa !23, !range !36, !noundef !37
  %29 = trunc i8 %28 to i1
  %30 = select i1 %29, i32 2, i32 0
  %31 = sext i32 %30 to i64
  %32 = or i64 %27, %31
  store i64 %32, ptr %20, align 8, !tbaa !51
  %33 = getelementptr inbounds nuw %"class.google::protobuf::internal::SerialArena::Block", ptr %19, i32 0, i32 1
  store i64 24, ptr %33, align 8, !tbaa !53
  %34 = getelementptr inbounds nuw %"class.google::protobuf::internal::SerialArena::Block", ptr %19, i32 0, i32 2
  %35 = load i64, ptr %7, align 8, !tbaa !7
  store i64 %35, ptr %34, align 8, !tbaa !54
  br label %36

36:                                               ; preds = %53, %5
  br i1 false, label %37, label %69

37:                                               ; preds = %36
  %38 = load ptr, ptr %8, align 8, !tbaa !38
  %39 = ptrtoint ptr %38 to i64
  %40 = and i64 %39, 3
  %41 = icmp eq i64 %40, 0
  store i1 false, ptr %12, align 1
  store i1 false, ptr %13, align 1
  call void @llvm.lifetime.start.p0(i64 1, ptr %16) #3
  br i1 %41, label %42, label %43

42:                                               ; preds = %37
  br label %47

43:                                               ; preds = %37
  call void @llvm.lifetime.start.p0(i64 56, ptr %11) #3
  store i1 true, ptr %12, align 1
  call void @_ZN6google8protobuf8internal10LogMessageC1ENS0_8LogLevelEPKci(ptr noundef nonnull align 8 dereferenceable(56) %11, i32 noundef 3, ptr noundef @.str.5, i32 noundef 107)
  store i1 true, ptr %13, align 1
  %44 = invoke noundef nonnull align 8 dereferenceable(56) ptr @_ZN6google8protobuf8internal10LogMessagelsEPKc(ptr noundef nonnull align 8 dereferenceable(56) %11, ptr noundef @.str.6)
          to label %45 unwind label %54

45:                                               ; preds = %43
  invoke void @_ZN6google8protobuf8internal11LogFinisheraSERNS1_10LogMessageE(ptr noundef nonnull align 1 dereferenceable(1) %16, ptr noundef nonnull align 8 dereferenceable(56) %44)
          to label %46 unwind label %58

46:                                               ; preds = %45
  br label %47

47:                                               ; preds = %46, %42
  call void @llvm.lifetime.end.p0(i64 1, ptr %16) #3
  %48 = load i1, ptr %13, align 1
  br i1 %48, label %49, label %50

49:                                               ; preds = %47
  call void @_ZN6google8protobuf8internal10LogMessageD1Ev(ptr noundef nonnull align 8 dereferenceable(56) %11) #3
  br label %50

50:                                               ; preds = %49, %47
  %51 = load i1, ptr %12, align 1
  br i1 %51, label %52, label %53

52:                                               ; preds = %50
  call void @llvm.lifetime.end.p0(i64 56, ptr %11) #3
  br label %53

53:                                               ; preds = %52, %50
  br label %36, !llvm.loop !55

54:                                               ; preds = %43
  %55 = landingpad { ptr, i32 }
          cleanup
  %56 = extractvalue { ptr, i32 } %55, 0
  store ptr %56, ptr %14, align 8
  %57 = extractvalue { ptr, i32 } %55, 1
  store i32 %57, ptr %15, align 4
  br label %62

58:                                               ; preds = %45
  %59 = landingpad { ptr, i32 }
          cleanup
  %60 = extractvalue { ptr, i32 } %59, 0
  store ptr %60, ptr %14, align 8
  %61 = extractvalue { ptr, i32 } %59, 1
  store i32 %61, ptr %15, align 4
  call void @llvm.lifetime.end.p0(i64 1, ptr %16) #3
  br label %62

62:                                               ; preds = %58, %54
  %63 = load i1, ptr %13, align 1
  br i1 %63, label %64, label %65

64:                                               ; preds = %62
  call void @_ZN6google8protobuf8internal10LogMessageD1Ev(ptr noundef nonnull align 8 dereferenceable(56) %11) #3
  br label %65

65:                                               ; preds = %64, %62
  %66 = load i1, ptr %12, align 1
  br i1 %66, label %67, label %68

67:                                               ; preds = %65
  call void @llvm.lifetime.end.p0(i64 56, ptr %11) #3
  br label %68

68:                                               ; preds = %67, %65
  br label %70

69:                                               ; preds = %36
  ret void

70:                                               ; preds = %68
  %71 = load ptr, ptr %14, align 8
  %72 = load i32, ptr %15, align 4
  %73 = insertvalue { ptr, i32 } poison, ptr %71, 0
  %74 = insertvalue { ptr, i32 } %73, i32 %72, 1
  resume { ptr, i32 } %74
}

; Function Attrs: mustprogress nounwind uwtable
define linkonce_odr noundef nonnull align 8 dereferenceable(16) ptr @_ZNSt5tupleIJRPvRmEEaSIS0_mEENSt9enable_ifIXcl12__assignableIT_T0_EEERS3_E4typeEOSt4pairIS6_S7_E(ptr noundef nonnull align 8 dereferenceable(16) %0, ptr noundef nonnull align 8 dereferenceable(16) %1) #5 comdat align 2 {
  %3 = alloca ptr, align 8
  %4 = alloca ptr, align 8
  store ptr %0, ptr %3, align 8, !tbaa !103
  store ptr %1, ptr %4, align 8, !tbaa !97
  %5 = load ptr, ptr %3, align 8
  %6 = load ptr, ptr %4, align 8, !tbaa !97
  %7 = getelementptr inbounds nuw %"struct.std::pair", ptr %6, i32 0, i32 0
  %8 = load ptr, ptr %7, align 8, !tbaa !3
  %9 = call noundef nonnull align 8 dereferenceable(8) ptr @_ZNSt11_Tuple_implILm0EJRPvRmEE7_M_headERS3_(ptr noundef nonnull align 8 dereferenceable(16) %5) #3
  store ptr %8, ptr %9, align 8, !tbaa !3
  %10 = load ptr, ptr %4, align 8, !tbaa !97
  %11 = getelementptr inbounds nuw %"struct.std::pair", ptr %10, i32 0, i32 1
  %12 = load i64, ptr %11, align 8, !tbaa !7
  %13 = call noundef nonnull align 8 dereferenceable(8) ptr @_ZNSt11_Tuple_implILm0EJRPvRmEE7_M_tailERS3_(ptr noundef nonnull align 8 dereferenceable(16) %5) #3
  %14 = call noundef nonnull align 8 dereferenceable(8) ptr @_ZNSt11_Tuple_implILm1EJRmEE7_M_headERS1_(ptr noundef nonnull align 8 dereferenceable(8) %5) #3
  store i64 %12, ptr %14, align 8, !tbaa !7
  ret ptr %5
}

; Function Attrs: mustprogress nounwind uwtable
define linkonce_odr void @_ZSt3tieIJPvmEESt5tupleIJDpRT_EES4_(ptr dead_on_unwind noalias writable sret(%"class.std::tuple") align 8 %0, ptr noundef nonnull align 8 dereferenceable(8) %1, ptr noundef nonnull align 8 dereferenceable(8) %2) #5 comdat {
  %4 = alloca ptr, align 8
  %5 = alloca ptr, align 8
  %6 = alloca ptr, align 8
  store ptr %0, ptr %4, align 8
  store ptr %1, ptr %5, align 8, !tbaa !99
  store ptr %2, ptr %6, align 8, !tbaa !49
  %7 = load ptr, ptr %5, align 8, !tbaa !99
  %8 = load ptr, ptr %6, align 8, !tbaa !49
  call void @_ZNSt5tupleIJRPvRmEEC2ILb1ETnNSt9enable_ifIXclsr4_TCCIXT_EEE29__is_implicitly_constructibleIS1_S2_EEEbE4typeELb1EEES1_S2_(ptr noundef nonnull align 8 dereferenceable(16) %0, ptr noundef nonnull align 8 dereferenceable(8) %7, ptr noundef nonnull align 8 dereferenceable(8) %8) #3
  ret void
}

; Function Attrs: mustprogress nounwind uwtable
define linkonce_odr noundef i64 @_ZNK6google8protobuf8internal11SerialArena5Block4sizeEv(ptr noundef nonnull align 8 dereferenceable(24) %0) #5 comdat align 2 {
  %2 = alloca ptr, align 8
  store ptr %0, ptr %2, align 8, !tbaa !38
  %3 = load ptr, ptr %2, align 8
  %4 = getelementptr inbounds nuw %"class.google::protobuf::internal::SerialArena::Block", ptr %3, i32 0, i32 2
  %5 = load i64, ptr %4, align 8, !tbaa !54
  ret i64 %5
}

; Function Attrs: mustprogress uwtable
define noundef ptr @_ZN6google8protobuf8internal11SerialArena8NewBlockEPNS2_5BlockEmPNS1_9ArenaImplE(ptr noundef %0, i64 noundef %1, ptr noundef %2) #7 align 2 {
  %4 = alloca ptr, align 8
  %5 = alloca i64, align 8
  %6 = alloca ptr, align 8
  %7 = alloca ptr, align 8
  %8 = alloca i64, align 8
  %9 = alloca %"struct.std::pair", align 8
  %10 = alloca %"class.std::tuple", align 8
  %11 = alloca ptr, align 8
  store ptr %0, ptr %4, align 8, !tbaa !38
  store i64 %1, ptr %5, align 8, !tbaa !7
  store ptr %2, ptr %6, align 8, !tbaa !9
  call void @llvm.lifetime.start.p0(i64 8, ptr %7) #3
  call void @llvm.lifetime.start.p0(i64 8, ptr %8) #3
  call void @llvm.lifetime.start.p0(i64 16, ptr %9) #3
  %12 = load ptr, ptr %6, align 8, !tbaa !9
  %13 = load ptr, ptr %4, align 8, !tbaa !38
  %14 = icmp ne ptr %13, null
  br i1 %14, label %15, label %18

15:                                               ; preds = %3
  %16 = load ptr, ptr %4, align 8, !tbaa !38
  %17 = call noundef i64 @_ZNK6google8protobuf8internal11SerialArena5Block4sizeEv(ptr noundef nonnull align 8 dereferenceable(24) %16)
  br label %19

18:                                               ; preds = %3
  br label %19

19:                                               ; preds = %18, %15
  %20 = phi i64 [ %17, %15 ], [ -1, %18 ]
  %21 = load i64, ptr %5, align 8, !tbaa !7
  %22 = call { ptr, i64 } @_ZN6google8protobuf8internal9ArenaImpl9NewBufferEmm(ptr noundef nonnull align 8 dereferenceable(40) %12, i64 noundef %20, i64 noundef %21)
  %23 = getelementptr inbounds nuw { ptr, i64 }, ptr %9, i32 0, i32 0
  %24 = extractvalue { ptr, i64 } %22, 0
  store ptr %24, ptr %23, align 8
  %25 = getelementptr inbounds nuw { ptr, i64 }, ptr %9, i32 0, i32 1
  %26 = extractvalue { ptr, i64 } %22, 1
  store i64 %26, ptr %25, align 8
  call void @llvm.lifetime.start.p0(i64 16, ptr %10) #3
  call void @_ZSt3tieIJPvmEESt5tupleIJDpRT_EES4_(ptr dead_on_unwind writable sret(%"class.std::tuple") align 8 %10, ptr noundef nonnull align 8 dereferenceable(8) %7, ptr noundef nonnull align 8 dereferenceable(8) %8) #3
  %27 = call noundef nonnull align 8 dereferenceable(16) ptr @_ZNSt5tupleIJRPvRmEEaSIS0_mEENSt9enable_ifIXcl12__assignableIT_T0_EEERS3_E4typeEOSt4pairIS6_S7_E(ptr noundef nonnull align 8 dereferenceable(16) %10, ptr noundef nonnull align 8 dereferenceable(16) %9) #3
  call void @llvm.lifetime.end.p0(i64 16, ptr %10) #3
  call void @llvm.lifetime.end.p0(i64 16, ptr %9) #3
  call void @llvm.lifetime.start.p0(i64 8, ptr %11) #3
  %28 = load ptr, ptr %7, align 8, !tbaa !3
  %29 = load i64, ptr %8, align 8, !tbaa !7
  %30 = load ptr, ptr %4, align 8, !tbaa !38
  call void @_ZN6google8protobuf8internal11SerialArena5BlockC2EmPS3_bb(ptr noundef nonnull align 8 dereferenceable(24) %28, i64 noundef %29, ptr noundef %30, i1 noundef zeroext false, i1 noundef zeroext false)
  store ptr %28, ptr %11, align 8, !tbaa !38
  %31 = load ptr, ptr %11, align 8, !tbaa !38
  call void @llvm.lifetime.end.p0(i64 8, ptr %11) #3
  call void @llvm.lifetime.end.p0(i64 8, ptr %8) #3
  call void @llvm.lifetime.end.p0(i64 8, ptr %7) #3
  ret ptr %31
}