; Function Attrs: mustprogress uwtable
define noundef ptr @_ZN6google8protobuf8internal11SerialArena8NewBlockEPNS2_5BlockEmPNS1_9ArenaImplE(ptr noundef %0, i64 noundef %1, ptr noundef captures(none) %2) local_unnamed_addr #6 align 2 personality ptr @__gxx_personality_v0 {
  %.not = icmp eq ptr %0, null
  br i1 %.not, label %7, label %4

4:                                                ; preds = %3
  %5 = getelementptr inbounds nuw i8, ptr %0, i64 16
  %6 = load i64, ptr %5, align 8, !tbaa !25
  br label %7

7:                                                ; preds = %3, %4
  %8 = phi i64 [ %6, %4 ], [ -1, %3 ]
  %9 = tail call { ptr, i64 } @_ZN6google8protobuf8internal9ArenaImpl9NewBufferEmm(ptr noundef nonnull align 8 dereferenceable(40) %2, i64 noundef %8, i64 noundef %1)
  %10 = extractvalue { ptr, i64 } %9, 0
  %11 = extractvalue { ptr, i64 } %9, 1
  %12 = ptrtoint ptr %0 to i64
  store i64 %12, ptr %10, align 8, !tbaa !23
  %13 = getelementptr inbounds nuw i8, ptr %10, i64 8
  store i64 24, ptr %13, align 8, !tbaa !36
  %14 = getelementptr inbounds nuw i8, ptr %10, i64 16
  store i64 %11, ptr %14, align 8, !tbaa !25
  ret ptr %10
}